; Function Attrs: mustprogress nofree norecurse nosync nounwind willreturn memory(read, inaccessiblemem: none) uwtable
define noundef double @_ZNK8QuantLib6detail14GsrProcessCore3volEm(ptr nocapture noundef nonnull readonly align 8 dereferenceable(360) %this, i64 noundef %index) local_unnamed_addr #7 align 2 {
entry:
  %vols_ = getelementptr inbounds nuw i8, ptr %this, i64 8
  %0 = load ptr, ptr %vols_, align 8, !tbaa !86
  %n_.i = getelementptr inbounds nuw i8, ptr %0, i64 8
  %1 = load i64, ptr %n_.i, align 8, !tbaa !36
  %cmp.not = icmp ult i64 %index, %1
  %2 = load ptr, ptr %0, align 8, !tbaa !3
  %3 = getelementptr double, ptr %2, i64 %1
  %arrayidx.i = getelementptr i8, ptr %3, i64 -8
  %arrayidx.i3 = getelementptr inbounds nuw double, ptr %2, i64 %index
  %retval.0.in = select i1 %cmp.not, ptr %arrayidx.i3, ptr %arrayidx.i
  %retval.0 = load double, ptr %retval.0.in, align 8, !tbaa !53
  ret double %retval.0
}